; Function Attrs: mustprogress nounwind uwtable
define dso_local void @_ZN4node24NodeArrayBufferAllocator4FreeEPvm(ptr nocapture noundef nonnull align 8 dereferenceable(32) %this, ptr noundef %data, i64 noundef %size) unnamed_addr #3 align 2 {
entry:
  %total_mem_usage_ = getelementptr inbounds i8, ptr %this, i64 16
  %0 = atomicrmw sub ptr %total_mem_usage_, i64 %size monotonic, align 8
  %allocator_ = getelementptr inbounds i8, ptr %this, i64 24
  %1 = load ptr, ptr %allocator_, align 8
  %vtable = load ptr, ptr %1, align 8
  %vfn = getelementptr inbounds i8, ptr %vtable, i64 32
  %2 = load ptr, ptr %vfn, align 8
  tail call void %2(ptr noundef nonnull align 8 dereferenceable(8) %1, ptr noundef %data, i64 noundef %size) #12
  ret void
}